; Function Attrs: mustprogress nofree norecurse nosync nounwind willreturn memory(argmem: readwrite) uwtable
define dso_local void @KeccakP1600_ExtractBytesInLane(ptr noundef readonly captures(none) %0, i32 noundef %1, ptr noundef writeonly captures(none) %2, i32 noundef %3, i32 noundef %4) local_unnamed_addr #2 {
  %6 = alloca [1 x i64], align 8
  %7 = zext i32 %1 to i64
  %8 = getelementptr inbounds nuw i64, ptr %0, i64 %7
  %9 = load i64, ptr %8, align 8
  call void @llvm.lifetime.start.p0(i64 8, ptr nonnull %6) #7
  store i64 %9, ptr %6, align 8
  %10 = zext i32 %3 to i64
  %11 = getelementptr inbounds nuw i8, ptr %6, i64 %10
  %12 = zext i32 %4 to i64
  call void @llvm.memcpy.p0.p0.i64(ptr align 1 %2, ptr nonnull align 1 %11, i64 %12, i1 false)
  call void @llvm.lifetime.end.p0(i64 8, ptr nonnull %6) #7
  ret void
}